target datalayout = "e-m:e-p270:32:32-p271:32:32-p272:64:64-i64:64-i128:128-f80:128-n8:16:32:64-S128"
target triple = "x86_64-pc-linux-gnu"

@ap_php_conv_p2.low_digits = internal constant [17 x i8] c"0123456789abcdef\00", align 16
@ap_php_conv_p2.upper_digits = internal constant [17 x i8] c"0123456789ABCDEF\00", align 16

; Function Attrs: nounwind uwtable
define dso_local ptr @ap_php_conv_p2(i64 noundef %0, i32 noundef %1, i8 noundef signext %2, ptr noundef %3, ptr noundef %4) #0 {
  %6 = alloca i64, align 8
  %7 = alloca i32, align 4
  %8 = alloca i8, align 1
  %9 = alloca ptr, align 8
  %10 = alloca ptr, align 8
  %11 = alloca i32, align 4
  %12 = alloca ptr, align 8
  %13 = alloca ptr, align 8
  store i64 %0, ptr %6, align 8, !tbaa !4
  store i32 %1, ptr %7, align 4, !tbaa !22
  store i8 %2, ptr %8, align 1, !tbaa !19
  store ptr %3, ptr %9, align 8, !tbaa !13
  store ptr %4, ptr %10, align 8, !tbaa !15
  call void @llvm.lifetime.start.p0(i64 4, ptr %11) #15
  %14 = load i32, ptr %7, align 4, !tbaa !22
  %15 = shl i32 1, %14
  %16 = sub nsw i32 %15, 1
  store i32 %16, ptr %11, align 4, !tbaa !22
  call void @llvm.lifetime.start.p0(i64 8, ptr %12) #15
  %17 = load ptr, ptr %9, align 8, !tbaa !13
  store ptr %17, ptr %12, align 8, !tbaa !13
  call void @llvm.lifetime.start.p0(i64 8, ptr %13) #15
  %18 = load i8, ptr %8, align 1, !tbaa !19
  %19 = sext i8 %18 to i32
  %20 = icmp eq i32 %19, 88
  %21 = select i1 %20, ptr @ap_php_conv_p2.upper_digits, ptr @ap_php_conv_p2.low_digits
  store ptr %21, ptr %13, align 8, !tbaa !13
  br label %22

22:                                               ; preds = %36, %5
  %23 = load ptr, ptr %13, align 8, !tbaa !13
  %24 = load i64, ptr %6, align 8, !tbaa !4
  %25 = load i32, ptr %11, align 4, !tbaa !22
  %26 = sext i32 %25 to i64
  %27 = and i64 %24, %26
  %28 = getelementptr inbounds nuw i8, ptr %23, i64 %27
  %29 = load i8, ptr %28, align 1, !tbaa !19
  %30 = load ptr, ptr %12, align 8, !tbaa !13
  %31 = getelementptr inbounds i8, ptr %30, i32 -1
  store ptr %31, ptr %12, align 8, !tbaa !13
  store i8 %29, ptr %31, align 1, !tbaa !19
  %32 = load i32, ptr %7, align 4, !tbaa !22
  %33 = load i64, ptr %6, align 8, !tbaa !4
  %34 = zext i32 %32 to i64
  %35 = lshr i64 %33, %34
  store i64 %35, ptr %6, align 8, !tbaa !4
  br label %36

36:                                               ; preds = %22
  %37 = load i64, ptr %6, align 8, !tbaa !4
  %38 = icmp ne i64 %37, 0
  br i1 %38, label %22, label %39

39:                                               ; preds = %36
  %40 = load ptr, ptr %9, align 8, !tbaa !13
  %41 = load ptr, ptr %12, align 8, !tbaa !13
  %42 = ptrtoint ptr %40 to i64
  %43 = ptrtoint ptr %41 to i64
  %44 = sub i64 %42, %43
  %45 = load ptr, ptr %10, align 8, !tbaa !15
  store i64 %44, ptr %45, align 8, !tbaa !4
  %46 = load ptr, ptr %12, align 8, !tbaa !13
  call void @llvm.lifetime.end.p0(i64 8, ptr %13) #15
  call void @llvm.lifetime.end.p0(i64 8, ptr %12) #15
  call void @llvm.lifetime.end.p0(i64 4, ptr %11) #15
  ret ptr %46
}