; Function Attrs: nofree norecurse nosync nounwind memory(argmem: write) uwtable
define dso_local noundef nonnull ptr @ap_php_conv_p2(i64 noundef %0, i32 noundef %1, i8 noundef signext %2, ptr noundef %3, ptr noundef writeonly captures(none) %4) local_unnamed_addr #0 {
  %notmask = shl nsw i32 -1, %1
  %6 = xor i32 %notmask, -1
  %7 = icmp eq i8 %2, 88
  %8 = select i1 %7, ptr @ap_php_conv_p2.upper_digits, ptr @ap_php_conv_p2.low_digits
  %9 = zext nneg i32 %6 to i64
  %10 = zext nneg i32 %1 to i64
  br label %11

11:                                               ; preds = %11, %5
  %.013 = phi ptr [ %3, %5 ], [ %15, %11 ]
  %.0 = phi i64 [ %0, %5 ], [ %16, %11 ]
  %12 = and i64 %.0, %9
  %13 = getelementptr inbounds nuw i8, ptr %8, i64 %12
  %14 = load i8, ptr %13, align 1, !tbaa !8
  %15 = getelementptr inbounds i8, ptr %.013, i64 -1
  store i8 %14, ptr %15, align 1, !tbaa !8
  %16 = lshr i64 %.0, %10
  %.not = icmp eq i64 %16, 0
  br i1 %.not, label %17, label %11

17:                                               ; preds = %11
  %18 = ptrtoint ptr %3 to i64
  %19 = ptrtoint ptr %15 to i64
  %20 = sub i64 %18, %19
  store i64 %20, ptr %4, align 8, !tbaa !9
  ret ptr %15
}